target datalayout = "e-m:e-p270:32:32-p271:32:32-p272:64:64-i64:64-i128:128-f80:128-n8:16:32:64-S128"
target triple = "x86_64-pc-linux-gnu"

%"class.igl::xml::XMLSerializable" = type { %"struct.igl::xml::XMLSerializableBase", i8, %"class.std::vector" }
%"struct.igl::xml::XMLSerializableBase" = type { %"struct.igl::SerializableBase" }
%"struct.igl::SerializableBase" = type { ptr }
%"class.std::vector" = type { %"struct.std::_Vector_base" }
%"struct.std::_Vector_base" = type { %"struct.std::_Vector_base<igl::xml::XMLSerializableBase *, std::allocator<igl::xml::XMLSerializableBase *>>::_Vector_impl" }
%"struct.std::_Vector_base<igl::xml::XMLSerializableBase *, std::allocator<igl::xml::XMLSerializableBase *>>::_Vector_impl" = type { %"struct.std::_Vector_base<igl::xml::XMLSerializableBase *, std::allocator<igl::xml::XMLSerializableBase *>>::_Vector_impl_data" }
%"struct.std::_Vector_base<igl::xml::XMLSerializableBase *, std::allocator<igl::xml::XMLSerializableBase *>>::_Vector_impl_data" = type { ptr, ptr, ptr }

; Function Attrs: mustprogress nounwind uwtable
define linkonce_odr dso_local void @_ZNSt12_Destroy_auxILb1EE9__destroyIPPN3igl3xml19XMLSerializableBaseEEEvT_S7_(ptr noundef %0, ptr noundef %1) #1 comdat align 2 {
  %3 = alloca ptr, align 8
  %4 = alloca ptr, align 8
  store ptr %0, ptr %3, align 8, !tbaa !141
  store ptr %1, ptr %4, align 8, !tbaa !141
  ret void
}

; Function Attrs: inlinehint mustprogress uwtable
define linkonce_odr dso_local void @_ZSt8_DestroyIPPN3igl3xml19XMLSerializableBaseEEvT_S5_(ptr noundef %0, ptr noundef %1) #10 comdat {
  %3 = alloca ptr, align 8
  %4 = alloca ptr, align 8
  store ptr %0, ptr %3, align 8, !tbaa !141
  store ptr %1, ptr %4, align 8, !tbaa !141
  %5 = load ptr, ptr %3, align 8, !tbaa !141
  %6 = load ptr, ptr %4, align 8, !tbaa !141
  call void @_ZNSt12_Destroy_auxILb1EE9__destroyIPPN3igl3xml19XMLSerializableBaseEEEvT_S7_(ptr noundef %5, ptr noundef %6)
  ret void
}

; Function Attrs: noinline noreturn nounwind uwtable
define linkonce_odr hidden void @__clang_call_terminate(ptr noundef %0) #16 comdat {
  %2 = call ptr @__cxa_begin_catch(ptr %0) #11
  call void @_ZSt9terminatev() #21
  unreachable
}

; Function Attrs: alwaysinline mustprogress uwtable
define linkonce_odr dso_local void @_ZSt8_DestroyIPPN3igl3xml19XMLSerializableBaseES3_EvT_S5_RSaIT0_E(ptr noundef %0, ptr noundef %1, ptr noundef nonnull align 1 dereferenceable(1) %2) #17 comdat {
  %4 = alloca ptr, align 8
  %5 = alloca ptr, align 8
  %6 = alloca ptr, align 8
  store ptr %0, ptr %4, align 8, !tbaa !141
  store ptr %1, ptr %5, align 8, !tbaa !141
  store ptr %2, ptr %6, align 8, !tbaa !112
  %7 = load ptr, ptr %4, align 8, !tbaa !141
  %8 = load ptr, ptr %5, align 8, !tbaa !141
  call void @_ZSt8_DestroyIPPN3igl3xml19XMLSerializableBaseEEvT_S5_(ptr noundef %7, ptr noundef %8)
  ret void
}

; Function Attrs: mustprogress nounwind uwtable
define linkonce_odr dso_local noundef nonnull align 1 dereferenceable(1) ptr @_ZNSt12_Vector_baseIPN3igl3xml19XMLSerializableBaseESaIS3_EE19_M_get_Tp_allocatorEv(ptr noundef nonnull align 8 dereferenceable(24) %0) #1 comdat align 2 {
  %2 = alloca ptr, align 8
  store ptr %0, ptr %2, align 8, !tbaa !108
  %3 = load ptr, ptr %2, align 8
  %4 = getelementptr inbounds nuw %"struct.std::_Vector_base", ptr %3, i32 0, i32 0
  ret ptr %4
}

; Function Attrs: mustprogress nounwind uwtable
define linkonce_odr dso_local void @_ZNSt6vectorIPN3igl3xml19XMLSerializableBaseESaIS3_EE15_M_erase_at_endEPS3_(ptr noundef nonnull align 8 dereferenceable(24) %0, ptr noundef %1) #1 comdat align 2 personality ptr @__gxx_personality_v0 {
  %3 = alloca ptr, align 8
  %4 = alloca ptr, align 8
  %5 = alloca i64, align 8
  store ptr %0, ptr %3, align 8, !tbaa !40
  store ptr %1, ptr %4, align 8, !tbaa !141
  %6 = load ptr, ptr %3, align 8
  call void @llvm.lifetime.start.p0(i64 8, ptr %5) #11
  %7 = getelementptr inbounds nuw %"struct.std::_Vector_base", ptr %6, i32 0, i32 0
  %8 = getelementptr inbounds nuw %"struct.std::_Vector_base<igl::xml::XMLSerializableBase *, std::allocator<igl::xml::XMLSerializableBase *>>::_Vector_impl_data", ptr %7, i32 0, i32 1
  %9 = load ptr, ptr %8, align 8, !tbaa !43
  %10 = load ptr, ptr %4, align 8, !tbaa !141
  %11 = ptrtoint ptr %9 to i64
  %12 = ptrtoint ptr %10 to i64
  %13 = sub i64 %11, %12
  %14 = sdiv exact i64 %13, 8
  store i64 %14, ptr %5, align 8, !tbaa !44
  %15 = load i64, ptr %5, align 8, !tbaa !44
  %16 = icmp ne i64 %15, 0
  br i1 %16, label %17, label %27

17:                                               ; preds = %2
  %18 = load ptr, ptr %4, align 8, !tbaa !141
  %19 = getelementptr inbounds nuw %"struct.std::_Vector_base", ptr %6, i32 0, i32 0
  %20 = getelementptr inbounds nuw %"struct.std::_Vector_base<igl::xml::XMLSerializableBase *, std::allocator<igl::xml::XMLSerializableBase *>>::_Vector_impl_data", ptr %19, i32 0, i32 1
  %21 = load ptr, ptr %20, align 8, !tbaa !43
  %22 = call noundef nonnull align 1 dereferenceable(1) ptr @_ZNSt12_Vector_baseIPN3igl3xml19XMLSerializableBaseESaIS3_EE19_M_get_Tp_allocatorEv(ptr noundef nonnull align 8 dereferenceable(24) %6) #11
  invoke void @_ZSt8_DestroyIPPN3igl3xml19XMLSerializableBaseES3_EvT_S5_RSaIT0_E(ptr noundef %18, ptr noundef %21, ptr noundef nonnull align 1 dereferenceable(1) %22)
          to label %23 unwind label %28

23:                                               ; preds = %17
  %24 = load ptr, ptr %4, align 8, !tbaa !141
  %25 = getelementptr inbounds nuw %"struct.std::_Vector_base", ptr %6, i32 0, i32 0
  %26 = getelementptr inbounds nuw %"struct.std::_Vector_base<igl::xml::XMLSerializableBase *, std::allocator<igl::xml::XMLSerializableBase *>>::_Vector_impl_data", ptr %25, i32 0, i32 1
  store ptr %24, ptr %26, align 8, !tbaa !43
  br label %27

27:                                               ; preds = %23, %2
  call void @llvm.lifetime.end.p0(i64 8, ptr %5) #11
  ret void

28:                                               ; preds = %17
  %29 = landingpad { ptr, i32 }
          catch ptr null
  %30 = extractvalue { ptr, i32 } %29, 0
  call void @__clang_call_terminate(ptr %30) #21
  unreachable
}

; Function Attrs: mustprogress nounwind uwtable
define linkonce_odr dso_local noundef nonnull align 8 dereferenceable(8) ptr @_ZNSt6vectorIPN3igl3xml19XMLSerializableBaseESaIS3_EEixEm(ptr noundef nonnull align 8 dereferenceable(24) %0, i64 noundef %1) #1 comdat align 2 {
  %3 = alloca ptr, align 8
  %4 = alloca i64, align 8
  store ptr %0, ptr %3, align 8, !tbaa !40
  store i64 %1, ptr %4, align 8, !tbaa !44
  %5 = load ptr, ptr %3, align 8
  %6 = getelementptr inbounds nuw %"struct.std::_Vector_base", ptr %5, i32 0, i32 0
  %7 = getelementptr inbounds nuw %"struct.std::_Vector_base<igl::xml::XMLSerializableBase *, std::allocator<igl::xml::XMLSerializableBase *>>::_Vector_impl_data", ptr %6, i32 0, i32 0
  %8 = load ptr, ptr %7, align 8, !tbaa !42
  %9 = load i64, ptr %4, align 8, !tbaa !44
  %10 = getelementptr inbounds nuw ptr, ptr %8, i64 %9
  ret ptr %10
}

; Function Attrs: mustprogress nounwind uwtable
define linkonce_odr dso_local noundef i64 @_ZNKSt6vectorIPN3igl3xml19XMLSerializableBaseESaIS3_EE4sizeEv(ptr noundef nonnull align 8 dereferenceable(24) %0) #1 comdat align 2 {
  %2 = alloca ptr, align 8
  store ptr %0, ptr %2, align 8, !tbaa !40
  %3 = load ptr, ptr %2, align 8
  %4 = getelementptr inbounds nuw %"struct.std::_Vector_base", ptr %3, i32 0, i32 0
  %5 = getelementptr inbounds nuw %"struct.std::_Vector_base<igl::xml::XMLSerializableBase *, std::allocator<igl::xml::XMLSerializableBase *>>::_Vector_impl_data", ptr %4, i32 0, i32 1
  %6 = load ptr, ptr %5, align 8, !tbaa !43
  %7 = getelementptr inbounds nuw %"struct.std::_Vector_base", ptr %3, i32 0, i32 0
  %8 = getelementptr inbounds nuw %"struct.std::_Vector_base<igl::xml::XMLSerializableBase *, std::allocator<igl::xml::XMLSerializableBase *>>::_Vector_impl_data", ptr %7, i32 0, i32 0
  %9 = load ptr, ptr %8, align 8, !tbaa !42
  %10 = ptrtoint ptr %6 to i64
  %11 = ptrtoint ptr %9 to i64
  %12 = sub i64 %10, %11
  %13 = sdiv exact i64 %12, 8
  ret i64 %13
}

; Function Attrs: mustprogress nounwind uwtable
define linkonce_odr dso_local void @_ZNSt6vectorIPN3igl3xml19XMLSerializableBaseESaIS3_EE5clearEv(ptr noundef nonnull align 8 dereferenceable(24) %0) #1 comdat align 2 {
  %2 = alloca ptr, align 8
  store ptr %0, ptr %2, align 8, !tbaa !40
  %3 = load ptr, ptr %2, align 8
  %4 = getelementptr inbounds nuw %"struct.std::_Vector_base", ptr %3, i32 0, i32 0
  %5 = getelementptr inbounds nuw %"struct.std::_Vector_base<igl::xml::XMLSerializableBase *, std::allocator<igl::xml::XMLSerializableBase *>>::_Vector_impl_data", ptr %4, i32 0, i32 0
  %6 = load ptr, ptr %5, align 8, !tbaa !42
  call void @_ZNSt6vectorIPN3igl3xml19XMLSerializableBaseESaIS3_EE15_M_erase_at_endEPS3_(ptr noundef nonnull align 8 dereferenceable(24) %3, ptr noundef %6) #11
  ret void
}

; Function Attrs: mustprogress uwtable
define dso_local void @_ZN3igl3xml15XMLSerializable11DeserializeEPKN8tinyxml211XMLDocumentEPKNS2_10XMLElementE(ptr noundef nonnull align 8 dereferenceable(40) %0, ptr noundef %1, ptr noundef %2) unnamed_addr #3 align 2 {
  %4 = alloca ptr, align 8
  %5 = alloca ptr, align 8
  %6 = alloca ptr, align 8
  %7 = alloca i32, align 4
  store ptr %0, ptr %4, align 8, !tbaa !15
  store ptr %1, ptr %5, align 8, !tbaa !47
  store ptr %2, ptr %6, align 8, !tbaa !49
  %8 = load ptr, ptr %4, align 8
  %9 = load ptr, ptr %8, align 8, !tbaa !19
  %10 = getelementptr inbounds ptr, ptr %9, i64 9
  %11 = load ptr, ptr %10, align 8
  %12 = call noundef zeroext i1 %11(ptr noundef nonnull align 8 dereferenceable(40) %8)
  br i1 %12, label %13, label %51

13:                                               ; preds = %3
  %14 = getelementptr inbounds nuw %"class.igl::xml::XMLSerializable", ptr %8, i32 0, i32 1
  %15 = load i8, ptr %14, align 8, !tbaa !21, !range !32, !noundef !33
  %16 = trunc i8 %15 to i1
  %17 = zext i1 %16 to i32
  %18 = icmp eq i32 %17, 0
  br i1 %18, label %19, label %25

19:                                               ; preds = %13
  %20 = getelementptr inbounds nuw %"class.igl::xml::XMLSerializable", ptr %8, i32 0, i32 2
  call void @_ZNSt6vectorIPN3igl3xml19XMLSerializableBaseESaIS3_EE5clearEv(ptr noundef nonnull align 8 dereferenceable(24) %20) #11
  %21 = load ptr, ptr %8, align 8, !tbaa !19
  %22 = getelementptr inbounds ptr, ptr %21, i64 6
  %23 = load ptr, ptr %22, align 8
  call void %23(ptr noundef nonnull align 8 dereferenceable(40) %8)
  %24 = getelementptr inbounds nuw %"class.igl::xml::XMLSerializable", ptr %8, i32 0, i32 1
  store i8 1, ptr %24, align 8, !tbaa !21
  br label %25

25:                                               ; preds = %19, %13
  call void @llvm.lifetime.start.p0(i64 4, ptr %7) #11
  store i32 0, ptr %7, align 4, !tbaa !34
  br label %26

26:                                               ; preds = %44, %25
  %27 = load i32, ptr %7, align 4, !tbaa !34
  %28 = zext i32 %27 to i64
  %29 = getelementptr inbounds nuw %"class.igl::xml::XMLSerializable", ptr %8, i32 0, i32 2
  %30 = call noundef i64 @_ZNKSt6vectorIPN3igl3xml19XMLSerializableBaseESaIS3_EE4sizeEv(ptr noundef nonnull align 8 dereferenceable(24) %29) #11
  %31 = icmp ult i64 %28, %30
  br i1 %31, label %33, label %32

32:                                               ; preds = %26
  call void @llvm.lifetime.end.p0(i64 4, ptr %7) #11
  br label %47

33:                                               ; preds = %26
  %34 = getelementptr inbounds nuw %"class.igl::xml::XMLSerializable", ptr %8, i32 0, i32 2
  %35 = load i32, ptr %7, align 4, !tbaa !34
  %36 = zext i32 %35 to i64
  %37 = call noundef nonnull align 8 dereferenceable(8) ptr @_ZNSt6vectorIPN3igl3xml19XMLSerializableBaseESaIS3_EEixEm(ptr noundef nonnull align 8 dereferenceable(24) %34, i64 noundef %36) #11
  %38 = load ptr, ptr %37, align 8, !tbaa !36
  %39 = load ptr, ptr %5, align 8, !tbaa !47
  %40 = load ptr, ptr %6, align 8, !tbaa !49
  %41 = load ptr, ptr %38, align 8, !tbaa !19
  %42 = getelementptr inbounds ptr, ptr %41, i64 5
  %43 = load ptr, ptr %42, align 8
  call void %43(ptr noundef nonnull align 8 dereferenceable(8) %38, ptr noundef %39, ptr noundef %40)
  br label %44

44:                                               ; preds = %33
  %45 = load i32, ptr %7, align 4, !tbaa !34
  %46 = add i32 %45, 1
  store i32 %46, ptr %7, align 4, !tbaa !34
  br label %26, !llvm.loop !52

47:                                               ; preds = %32
  %48 = load ptr, ptr %8, align 8, !tbaa !19
  %49 = getelementptr inbounds ptr, ptr %48, i64 10
  %50 = load ptr, ptr %49, align 8
  call void %50(ptr noundef nonnull align 8 dereferenceable(40) %8)
  br label %51

51:                                               ; preds = %47, %3
  ret void
}